; Function Attrs: nounwind uwtable
define dso_local void @packmem(ptr noundef readonly captures(none) %0, i32 noundef %1, ptr noundef %2) #0 {
  %4 = tail call noundef i32 @llvm.bswap.i32(i32 %1)
  %5 = icmp ugt i32 %1, 1073741824
  br i1 %5, label %6, label %8

6:                                                ; preds = %3
  %7 = tail call i32 (ptr, ...) @error(ptr noundef nonnull @.str.14, ptr noundef nonnull @__func__.packmem, i32 noundef %1, i32 noundef 1073741824) #14
  br label %try_grow_buf_remaining.exit.thread

8:                                                ; preds = %3
  %9 = zext nneg i32 %1 to i64
  %10 = add nuw nsw i32 %1, 4
  %11 = getelementptr inbounds nuw i8, ptr %2, i64 16
  %12 = load i32, ptr %11, align 8
  %13 = getelementptr inbounds nuw i8, ptr %2, i64 20
  %14 = load i32, ptr %13, align 4
  %15 = sub i32 %12, %14
  %16 = icmp ult i32 %15, %10
  br i1 %16, label %17, label %try_grow_buf_remaining.exit

17:                                               ; preds = %8
  %18 = add i32 %12, 16384
  %19 = zext i32 %18 to i64
  %20 = icmp samesign ugt i32 %1, 16379
  %narrow.i.i = select i1 %20, i32 %10, i32 0
  %21 = zext nneg i32 %narrow.i.i to i64
  %.0.i.i = add nuw nsw i64 %19, %21
  %22 = getelementptr inbounds nuw i8, ptr %2, i64 24
  %23 = load i8, ptr %22, align 8, !range !8, !noundef !9
  %24 = trunc nuw i8 %23 to i1
  br i1 %24, label %try_grow_buf_remaining.exit.thread, label %25

25:                                               ; preds = %17
  %26 = getelementptr inbounds nuw i8, ptr %2, i64 25
  %27 = load i8, ptr %26, align 1, !range !8, !noundef !9
  %28 = trunc nuw i8 %27 to i1
  br i1 %28, label %try_grow_buf_remaining.exit.thread, label %29

29:                                               ; preds = %25
  %30 = icmp samesign ugt i64 %.0.i.i, 4294901760
  br i1 %30, label %31, label %33

31:                                               ; preds = %29
  %32 = tail call i32 (ptr, ...) @error(ptr noundef nonnull @.str.8, ptr noundef nonnull @__func__.try_grow_buf, i64 noundef %.0.i.i, i32 noundef -65536) #14
  br label %try_grow_buf_remaining.exit.thread

33:                                               ; preds = %29
  %34 = getelementptr inbounds nuw i8, ptr %2, i64 8
  %35 = tail call ptr @slurm_xrecalloc(ptr noundef nonnull %34, i64 noundef 1, i64 noundef %.0.i.i, i1 noundef zeroext true, i1 noundef zeroext true, ptr noundef nonnull @.str.1, i32 noundef 238, ptr noundef nonnull @__func__.try_grow_buf) #14
  %.not.i.i = icmp eq ptr %35, null
  br i1 %.not.i.i, label %try_grow_buf_remaining.exit.thread, label %36

36:                                               ; preds = %33
  %37 = trunc nuw i64 %.0.i.i to i32
  store i32 %37, ptr %11, align 8
  %.pre = load i32, ptr %13, align 4
  br label %try_grow_buf_remaining.exit

try_grow_buf_remaining.exit:                      ; preds = %36, %8
  %38 = phi i32 [ %.pre, %36 ], [ %14, %8 ]
  %39 = getelementptr inbounds nuw i8, ptr %2, i64 8
  %40 = load ptr, ptr %39, align 8
  %41 = zext i32 %38 to i64
  %42 = getelementptr inbounds nuw i8, ptr %40, i64 %41
  store i32 %4, ptr %42, align 1
  %43 = load i32, ptr %13, align 4
  %44 = add i32 %43, 4
  store i32 %44, ptr %13, align 4
  %.not14 = icmp eq i32 %1, 0
  br i1 %.not14, label %try_grow_buf_remaining.exit.thread, label %45

45:                                               ; preds = %try_grow_buf_remaining.exit
  %46 = load ptr, ptr %39, align 8
  %47 = zext i32 %44 to i64
  %48 = getelementptr inbounds nuw i8, ptr %46, i64 %47
  tail call void @llvm.memcpy.p0.p0.i64(ptr align 1 %48, ptr align 1 %0, i64 %9, i1 false)
  %49 = load i32, ptr %13, align 4
  %50 = add i32 %49, %1
  store i32 %50, ptr %13, align 4
  br label %try_grow_buf_remaining.exit.thread

try_grow_buf_remaining.exit.thread:               ; preds = %33, %17, %25, %31, %try_grow_buf_remaining.exit, %45, %6
  ret void
}